target datalayout = "e-m:e-p270:32:32-p271:32:32-p272:64:64-i64:64-i128:128-f80:128-n8:16:32:64-S128"
target triple = "x86_64-unknown-linux-gnu"

@_ZN2EA4StdCL13kEpochSecondsE = internal global [10 x i64] [i64 0, i64 89839426968000, i64 55278460800, i64 58628966400, i64 59926694400, i64 61504531200, i64 62135683200, i64 63082368000, i64 63082411135, i64 0], align 16

; Function Attrs: mustprogress nounwind uwtable
define dso_local noundef i64 @_ZN2EA4StdC19ConvertEpochSecondsENS0_5EpochElS1_(i32 noundef %srcEpoch, i64 noundef %srcSeconds, i32 noundef %destEpoch) #3 {
entry:
  %retval = alloca i64, align 8
  %srcEpoch.addr = alloca i32, align 4
  %srcSeconds.addr = alloca i64, align 8
  %destEpoch.addr = alloca i32, align 4
  store i32 %srcEpoch, ptr %srcEpoch.addr, align 4
  store i64 %srcSeconds, ptr %srcSeconds.addr, align 8
  store i32 %destEpoch, ptr %destEpoch.addr, align 4
  %0 = load i32, ptr %srcEpoch.addr, align 4
  %cmp = icmp slt i32 %0, 10
  br i1 %cmp, label %land.lhs.true, label %if.end

land.lhs.true:                                    ; preds = %entry
  %1 = load i32, ptr %destEpoch.addr, align 4
  %cmp1 = icmp slt i32 %1, 10
  br i1 %cmp1, label %if.then, label %if.end

if.then:                                          ; preds = %land.lhs.true
  %2 = load i64, ptr %srcSeconds.addr, align 8
  %3 = load i32, ptr %srcEpoch.addr, align 4
  %idxprom = zext i32 %3 to i64
  %arrayidx = getelementptr inbounds [10 x i64], ptr @_ZN2EA4StdCL13kEpochSecondsE, i64 0, i64 %idxprom
  %4 = load i64, ptr %arrayidx, align 8
  %add = add nsw i64 %2, %4
  %5 = load i32, ptr %destEpoch.addr, align 4
  %idxprom2 = zext i32 %5 to i64
  %arrayidx3 = getelementptr inbounds [10 x i64], ptr @_ZN2EA4StdCL13kEpochSecondsE, i64 0, i64 %idxprom2
  %6 = load i64, ptr %arrayidx3, align 8
  %sub = sub nsw i64 %add, %6
  store i64 %sub, ptr %retval, align 8
  br label %return

if.end:                                           ; preds = %land.lhs.true, %entry
  store i64 0, ptr %retval, align 8
  br label %return

return:                                           ; preds = %if.end, %if.then
  %7 = load i64, ptr %retval, align 8
  ret i64 %7
}