; Function Attrs: mustprogress nofree norecurse nosync nounwind willreturn memory(none) uwtable
define dso_local noundef i64 @_ZN2EA4StdC19ConvertEpochSecondsENS0_5EpochElS1_(i32 noundef %srcEpoch, i64 noundef %srcSeconds, i32 noundef %destEpoch) local_unnamed_addr #4 {
entry:
  %cmp = icmp slt i32 %srcEpoch, 10
  %cmp1 = icmp slt i32 %destEpoch, 10
  %or.cond = and i1 %cmp, %cmp1
  br i1 %or.cond, label %if.then, label %return

if.then:                                          ; preds = %entry
  %idxprom = zext i32 %srcEpoch to i64
  %arrayidx = getelementptr inbounds nuw [10 x i64], ptr @_ZN2EA4StdCL13kEpochSecondsE, i64 0, i64 %idxprom
  %0 = load i64, ptr %arrayidx, align 8
  %add = add nsw i64 %0, %srcSeconds
  %idxprom2 = zext i32 %destEpoch to i64
  %arrayidx3 = getelementptr inbounds nuw [10 x i64], ptr @_ZN2EA4StdCL13kEpochSecondsE, i64 0, i64 %idxprom2
  %1 = load i64, ptr %arrayidx3, align 8
  %sub = sub i64 %add, %1
  br label %return

return:                                           ; preds = %entry, %if.then
  %retval.0 = phi i64 [ %sub, %if.then ], [ 0, %entry ]
  ret i64 %retval.0
}